; Function Attrs: mustprogress uwtable
define void @_ZN5arrow2io20SlowRandomAccessFile4PeekEl(ptr dead_on_unwind noalias writable sret(%"class.arrow::Result.12") align 8 %0, ptr noundef nonnull readonly align 8 captures(none) dereferenceable(56) %1, i64 noundef %2) unnamed_addr #2 align 2 {
  %4 = getelementptr inbounds nuw i8, ptr %1, i64 24
  %5 = load ptr, ptr %4, align 8, !tbaa !61
  %6 = load ptr, ptr %5, align 8, !tbaa !3
  %7 = getelementptr inbounds nuw i8, ptr %6, i64 40
  %8 = load ptr, ptr %7, align 8
  tail call void %8(ptr dead_on_unwind writable sret(%"class.arrow::Result.12") align 8 %0, ptr noundef nonnull align 8 dereferenceable(8) %5, i64 noundef %2)
  ret void
}